target datalayout = "e-m:e-p270:32:32-p271:32:32-p272:64:64-i64:64-i128:128-f80:128-n8:16:32:64-S128"
target triple = "x86_64-pc-linux-gnu"

%struct.MatchState = type { i32, ptr, ptr, ptr, ptr, i32, [32 x %struct.anon] }
%struct.anon = type { ptr, i64 }

@.str.30 = private unnamed_addr constant [22 x i8] c"invalid capture index\00", align 1
@.str.31 = private unnamed_addr constant [19 x i8] c"unfinished capture\00", align 1

; Function Attrs: mustprogress uwtable
define internal void @_ZL15push_onecaptureP10MatchStateiPKcS2_(ptr noundef %0, i32 noundef %1, ptr noundef %2, ptr noundef %3) #2 {
  %5 = alloca ptr, align 8
  %6 = alloca i32, align 4
  %7 = alloca ptr, align 8
  %8 = alloca ptr, align 8
  %9 = alloca i64, align 8
  store ptr %0, ptr %5, align 8, !tbaa !59
  store i32 %1, ptr %6, align 4, !tbaa !24
  store ptr %2, ptr %7, align 8, !tbaa !9
  store ptr %3, ptr %8, align 8, !tbaa !9
  %10 = load i32, ptr %6, align 4, !tbaa !24
  %11 = load ptr, ptr %5, align 8, !tbaa !59
  %12 = getelementptr inbounds nuw %struct.MatchState, ptr %11, i32 0, i32 5
  %13 = load i32, ptr %12, align 8, !tbaa !65
  %14 = icmp sge i32 %10, %13
  br i1 %14, label %15, label %33

15:                                               ; preds = %4
  %16 = load i32, ptr %6, align 4, !tbaa !24
  %17 = icmp eq i32 %16, 0
  br i1 %17, label %18, label %28

18:                                               ; preds = %15
  %19 = load ptr, ptr %5, align 8, !tbaa !59
  %20 = getelementptr inbounds nuw %struct.MatchState, ptr %19, i32 0, i32 4
  %21 = load ptr, ptr %20, align 8, !tbaa !61
  %22 = load ptr, ptr %7, align 8, !tbaa !9
  %23 = load ptr, ptr %8, align 8, !tbaa !9
  %24 = load ptr, ptr %7, align 8, !tbaa !9
  %25 = ptrtoint ptr %23 to i64
  %26 = ptrtoint ptr %24 to i64
  %27 = sub i64 %25, %26
  call void @_Z15lua_pushlstringP9lua_StatePKcm(ptr noundef %21, ptr noundef %22, i64 noundef %27)
  br label %32

28:                                               ; preds = %15
  %29 = load ptr, ptr %5, align 8, !tbaa !59
  %30 = getelementptr inbounds nuw %struct.MatchState, ptr %29, i32 0, i32 4
  %31 = load ptr, ptr %30, align 8, !tbaa !61
  call void (ptr, ptr, ...) @_Z11luaL_errorLP9lua_StatePKcz(ptr noundef %31, ptr noundef @.str.30) #14
  unreachable

32:                                               ; preds = %18
  br label %82

33:                                               ; preds = %4
  call void @llvm.lifetime.start.p0(i64 8, ptr %9) #13
  %34 = load ptr, ptr %5, align 8, !tbaa !59
  %35 = getelementptr inbounds nuw %struct.MatchState, ptr %34, i32 0, i32 6
  %36 = load i32, ptr %6, align 4, !tbaa !24
  %37 = sext i32 %36 to i64
  %38 = getelementptr inbounds [32 x %struct.anon], ptr %35, i64 0, i64 %37
  %39 = getelementptr inbounds nuw %struct.anon, ptr %38, i32 0, i32 1
  %40 = load i64, ptr %39, align 8, !tbaa !92
  store i64 %40, ptr %9, align 8, !tbaa !22
  %41 = load i64, ptr %9, align 8, !tbaa !22
  %42 = icmp eq i64 %41, -1
  br i1 %42, label %43, label %47

43:                                               ; preds = %33
  %44 = load ptr, ptr %5, align 8, !tbaa !59
  %45 = getelementptr inbounds nuw %struct.MatchState, ptr %44, i32 0, i32 4
  %46 = load ptr, ptr %45, align 8, !tbaa !61
  call void (ptr, ptr, ...) @_Z11luaL_errorLP9lua_StatePKcz(ptr noundef %46, ptr noundef @.str.31) #14
  unreachable

47:                                               ; preds = %33
  %48 = load i64, ptr %9, align 8, !tbaa !22
  %49 = icmp eq i64 %48, -2
  br i1 %49, label %50, label %69

50:                                               ; preds = %47
  %51 = load ptr, ptr %5, align 8, !tbaa !59
  %52 = getelementptr inbounds nuw %struct.MatchState, ptr %51, i32 0, i32 4
  %53 = load ptr, ptr %52, align 8, !tbaa !61
  %54 = load ptr, ptr %5, align 8, !tbaa !59
  %55 = getelementptr inbounds nuw %struct.MatchState, ptr %54, i32 0, i32 6
  %56 = load i32, ptr %6, align 4, !tbaa !24
  %57 = sext i32 %56 to i64
  %58 = getelementptr inbounds [32 x %struct.anon], ptr %55, i64 0, i64 %57
  %59 = getelementptr inbounds nuw %struct.anon, ptr %58, i32 0, i32 0
  %60 = load ptr, ptr %59, align 8, !tbaa !90
  %61 = load ptr, ptr %5, align 8, !tbaa !59
  %62 = getelementptr inbounds nuw %struct.MatchState, ptr %61, i32 0, i32 1
  %63 = load ptr, ptr %62, align 8, !tbaa !63
  %64 = ptrtoint ptr %60 to i64
  %65 = ptrtoint ptr %63 to i64
  %66 = sub i64 %64, %65
  %67 = trunc i64 %66 to i32
  %68 = add nsw i32 %67, 1
  call void @_Z15lua_pushintegerP9lua_Statei(ptr noundef %53, i32 noundef %68)
  br label %81

69:                                               ; preds = %47
  %70 = load ptr, ptr %5, align 8, !tbaa !59
  %71 = getelementptr inbounds nuw %struct.MatchState, ptr %70, i32 0, i32 4
  %72 = load ptr, ptr %71, align 8, !tbaa !61
  %73 = load ptr, ptr %5, align 8, !tbaa !59
  %74 = getelementptr inbounds nuw %struct.MatchState, ptr %73, i32 0, i32 6
  %75 = load i32, ptr %6, align 4, !tbaa !24
  %76 = sext i32 %75 to i64
  %77 = getelementptr inbounds [32 x %struct.anon], ptr %74, i64 0, i64 %76
  %78 = getelementptr inbounds nuw %struct.anon, ptr %77, i32 0, i32 0
  %79 = load ptr, ptr %78, align 8, !tbaa !90
  %80 = load i64, ptr %9, align 8, !tbaa !22
  call void @_Z15lua_pushlstringP9lua_StatePKcm(ptr noundef %72, ptr noundef %79, i64 noundef %80)
  br label %81

81:                                               ; preds = %69, %50
  call void @llvm.lifetime.end.p0(i64 8, ptr %9) #13
  br label %82

82:                                               ; preds = %81, %32
  ret void
}