; Function Attrs: mustprogress uwtable
define internal fastcc void @_ZL15push_onecaptureP10MatchStateiPKcS2_(ptr noundef nonnull readonly captures(none) %0, i32 noundef %1, ptr noundef %2, ptr noundef %3) unnamed_addr #0 {
  %5 = getelementptr inbounds nuw i8, ptr %0, i64 40
  %6 = load i32, ptr %5, align 8, !tbaa !35
  %.not = icmp slt i32 %1, %6
  br i1 %.not, label %16, label %7

7:                                                ; preds = %4
  %8 = icmp eq i32 %1, 0
  %9 = getelementptr inbounds nuw i8, ptr %0, i64 32
  %10 = load ptr, ptr %9, align 8, !tbaa !28
  br i1 %8, label %11, label %15

11:                                               ; preds = %7
  %12 = ptrtoint ptr %3 to i64
  %13 = ptrtoint ptr %2 to i64
  %14 = sub i64 %12, %13
  tail call void @_Z15lua_pushlstringP9lua_StatePKcm(ptr noundef %10, ptr noundef %2, i64 noundef %14)
  br label %36

15:                                               ; preds = %7
  tail call void (ptr, ptr, ...) @_Z11luaL_errorLP9lua_StatePKcz(ptr noundef %10, ptr noundef nonnull @.str.30) #15
  unreachable

16:                                               ; preds = %4
  %17 = getelementptr inbounds nuw i8, ptr %0, i64 48
  %18 = sext i32 %1 to i64
  %19 = getelementptr inbounds [32 x %struct.anon], ptr %17, i64 0, i64 %18
  %20 = getelementptr inbounds nuw i8, ptr %19, i64 8
  %21 = load i64, ptr %20, align 8, !tbaa !36
  %22 = getelementptr inbounds nuw i8, ptr %0, i64 32
  %23 = load ptr, ptr %22, align 8, !tbaa !28
  switch i64 %21, label %34 [
    i64 -1, label %24
    i64 -2, label %25
  ]

24:                                               ; preds = %16
  tail call void (ptr, ptr, ...) @_Z11luaL_errorLP9lua_StatePKcz(ptr noundef %23, ptr noundef nonnull @.str.31) #15
  unreachable

25:                                               ; preds = %16
  %26 = load ptr, ptr %19, align 8, !tbaa !38
  %27 = getelementptr inbounds nuw i8, ptr %0, i64 8
  %28 = load ptr, ptr %27, align 8, !tbaa !32
  %29 = ptrtoint ptr %26 to i64
  %30 = ptrtoint ptr %28 to i64
  %31 = sub i64 %29, %30
  %32 = trunc i64 %31 to i32
  %33 = add nsw i32 %32, 1
  tail call void @_Z15lua_pushintegerP9lua_Statei(ptr noundef %23, i32 noundef %33)
  br label %36

34:                                               ; preds = %16
  %35 = load ptr, ptr %19, align 8, !tbaa !38
  tail call void @_Z15lua_pushlstringP9lua_StatePKcm(ptr noundef %23, ptr noundef %35, i64 noundef %21)
  br label %36

36:                                               ; preds = %25, %34, %11
  ret void
}